; Function Attrs: nounwind uwtable
define ptr @l_Lean_getConstVal___at_Lean_Elab_OpenDecl_elabOpenDecl___spec__47___rarg(ptr noundef %0, ptr noundef %1, ptr noundef %2, ptr noundef %3, ptr noundef %4, ptr noundef %5, ptr noundef %6) #0 {
  %8 = getelementptr inbounds nuw i8, ptr %1, i64 8
  %9 = load ptr, ptr %8, align 8, !tbaa !4
  %10 = ptrtoint ptr %9 to i64
  %11 = and i64 %10, 1
  %.not = icmp eq i64 %11, 0
  br i1 %.not, label %12, label %lean_inc.exit21

12:                                               ; preds = %7
  %.val.i = load i32, ptr %9, align 4, !tbaa !8
  %13 = icmp sgt i32 %.val.i, 0
  br i1 %13, label %14, label %16, !prof !11

14:                                               ; preds = %12
  %15 = add nuw i32 %.val.i, 1
  store i32 %15, ptr %9, align 4, !tbaa !8
  br label %lean_inc.exit21

16:                                               ; preds = %12
  %.not.i22 = icmp eq i32 %.val.i, 0
  br i1 %.not.i22, label %lean_inc.exit21, label %17

17:                                               ; preds = %16
  tail call void @lean_inc_ref_cold(ptr noundef nonnull %9) #6
  br label %lean_inc.exit21

lean_inc.exit21:                                  ; preds = %17, %16, %14, %7
  %18 = ptrtoint ptr %1 to i64
  %19 = and i64 %18, 1
  %.not26 = icmp eq i64 %19, 0
  br i1 %.not26, label %20, label %lean_dec.exit

20:                                               ; preds = %lean_inc.exit21
  %21 = load i32, ptr %1, align 4, !tbaa !8
  %22 = icmp sgt i32 %21, 1
  br i1 %22, label %23, label %25, !prof !11

23:                                               ; preds = %20
  %24 = add nsw i32 %21, -1
  store i32 %24, ptr %1, align 4, !tbaa !8
  br label %lean_dec.exit

25:                                               ; preds = %20
  %.not.i = icmp eq i32 %21, 0
  br i1 %.not.i, label %lean_dec.exit, label %26

26:                                               ; preds = %25
  tail call void @lean_dec_ref_cold(ptr noundef nonnull %1) #6
  br label %lean_dec.exit

lean_dec.exit:                                    ; preds = %26, %25, %23, %lean_inc.exit21
  %27 = getelementptr inbounds nuw i8, ptr %0, i64 16
  %28 = load ptr, ptr %27, align 8, !tbaa !4
  %29 = ptrtoint ptr %28 to i64
  %30 = and i64 %29, 1
  %.not27 = icmp eq i64 %30, 0
  br i1 %.not27, label %31, label %lean_inc.exit

31:                                               ; preds = %lean_dec.exit
  %.val.i23 = load i32, ptr %28, align 4, !tbaa !8
  %32 = icmp sgt i32 %.val.i23, 0
  br i1 %32, label %33, label %35, !prof !11

33:                                               ; preds = %31
  %34 = add nuw i32 %.val.i23, 1
  store i32 %34, ptr %28, align 4, !tbaa !8
  br label %lean_inc.exit

35:                                               ; preds = %31
  %.not.i24 = icmp eq i32 %.val.i23, 0
  br i1 %.not.i24, label %lean_inc.exit, label %36

36:                                               ; preds = %35
  tail call void @lean_inc_ref_cold(ptr noundef nonnull %28) #6
  br label %lean_inc.exit

lean_inc.exit:                                    ; preds = %36, %35, %33, %lean_dec.exit
  tail call void @lean_inc_heartbeat() #6
  %37 = tail call noalias ptr @mi_malloc_small(i64 noundef 72) #6
  %38 = icmp eq ptr %37, null
  br i1 %38, label %39, label %lean_alloc_closure.exit

39:                                               ; preds = %lean_inc.exit
  tail call void @lean_internal_panic_out_of_memory() #7
  unreachable

lean_alloc_closure.exit:                          ; preds = %lean_inc.exit
  %40 = getelementptr inbounds nuw i8, ptr %37, i64 4
  store i32 1, ptr %37, align 4, !tbaa !8
  store i32 -184549304, ptr %40, align 4
  %41 = getelementptr inbounds nuw i8, ptr %37, i64 8
  store ptr @l_Lean_getConstVal___at_Lean_Elab_OpenDecl_elabOpenDecl___spec__47___rarg___lambda__1___boxed, ptr %41, align 8, !tbaa !4
  %42 = getelementptr inbounds nuw i8, ptr %37, i64 16
  store i16 7, ptr %42, align 8, !tbaa !12
  %43 = getelementptr inbounds nuw i8, ptr %37, i64 18
  store i16 6, ptr %43, align 2, !tbaa !12
  %44 = getelementptr inbounds nuw i8, ptr %37, i64 24
  store ptr %5, ptr %44, align 8, !tbaa !4
  %45 = getelementptr inbounds nuw i8, ptr %37, i64 32
  store ptr %0, ptr %45, align 8, !tbaa !4
  %46 = getelementptr inbounds nuw i8, ptr %37, i64 40
  store ptr %2, ptr %46, align 8, !tbaa !4
  %47 = getelementptr inbounds nuw i8, ptr %37, i64 48
  store ptr %3, ptr %47, align 8, !tbaa !4
  %48 = getelementptr inbounds nuw i8, ptr %37, i64 56
  store ptr %4, ptr %48, align 8, !tbaa !4
  %49 = getelementptr inbounds nuw i8, ptr %37, i64 64
  store ptr %6, ptr %49, align 8, !tbaa !4
  %50 = tail call ptr @lean_apply_4(ptr noundef %28, ptr noundef nonnull inttoptr (i64 1 to ptr), ptr noundef nonnull inttoptr (i64 1 to ptr), ptr noundef %9, ptr noundef nonnull %37) #6
  ret ptr %50
}